target datalayout = "e-m:e-p270:32:32-p271:32:32-p272:64:64-i64:64-i128:128-f80:128-n8:16:32:64-S128"
target triple = "x86_64-pc-linux-gnu"

%"class.std::__shared_count" = type { ptr }
%"class.cv::mcc::CCheckerDetectorImpl" = type <{ %"class.cv::mcc::CCheckerDetector", %"class.std::vector", %"class.cv::dnn::dnn4_v20241223::Net", i8, [7 x i8] }>
%"class.cv::mcc::CCheckerDetector" = type { %"class.cv::Algorithm" }
%"class.cv::Algorithm" = type { ptr }
%"class.std::vector" = type { %"struct.std::_Vector_base" }
%"struct.std::_Vector_base" = type { %"struct.std::_Vector_base<cv::Ptr<cv::mcc::CChecker>, std::allocator<cv::Ptr<cv::mcc::CChecker>>>::_Vector_impl" }
%"struct.std::_Vector_base<cv::Ptr<cv::mcc::CChecker>, std::allocator<cv::Ptr<cv::mcc::CChecker>>>::_Vector_impl" = type { %"struct.std::_Vector_base<cv::Ptr<cv::mcc::CChecker>, std::allocator<cv::Ptr<cv::mcc::CChecker>>>::_Vector_impl_data" }
%"struct.std::_Vector_base<cv::Ptr<cv::mcc::CChecker>, std::allocator<cv::Ptr<cv::mcc::CChecker>>>::_Vector_impl_data" = type { ptr, ptr, ptr }
%"class.cv::dnn::dnn4_v20241223::Net" = type { %"struct.cv::Ptr.4" }
%"struct.cv::Ptr.4" = type { %"class.std::shared_ptr.5" }
%"class.std::shared_ptr.5" = type { %"class.std::__shared_ptr.6" }
%"class.std::__shared_ptr.6" = type { ptr, %"class.std::__shared_count" }

; Function Attrs: mustprogress nounwind uwtable
define linkonce_odr hidden void @_ZNSt15__new_allocatorIN2cv3PtrINS0_3mcc8CCheckerEEEEC2Ev(ptr noundef nonnull align 1 dereferenceable(1) %0) unnamed_addr #8 comdat align 2 {
  %2 = alloca ptr, align 8
  store ptr %0, ptr %2, align 8, !tbaa !389
  ret void
}

; Function Attrs: mustprogress nounwind uwtable
define linkonce_odr hidden void @_ZNSt12_Vector_baseIN2cv3PtrINS0_3mcc8CCheckerEEESaIS4_EE17_Vector_impl_dataC2Ev(ptr noundef nonnull align 8 dereferenceable(24) %0) unnamed_addr #8 comdat align 2 {
  %2 = alloca ptr, align 8
  store ptr %0, ptr %2, align 8, !tbaa !387
  %3 = load ptr, ptr %2, align 8
  %4 = getelementptr inbounds nuw %"struct.std::_Vector_base<cv::Ptr<cv::mcc::CChecker>, std::allocator<cv::Ptr<cv::mcc::CChecker>>>::_Vector_impl_data", ptr %3, i32 0, i32 0
  store ptr null, ptr %4, align 8, !tbaa !35
  %5 = getelementptr inbounds nuw %"struct.std::_Vector_base<cv::Ptr<cv::mcc::CChecker>, std::allocator<cv::Ptr<cv::mcc::CChecker>>>::_Vector_impl_data", ptr %3, i32 0, i32 1
  store ptr null, ptr %5, align 8, !tbaa !36
  %6 = getelementptr inbounds nuw %"struct.std::_Vector_base<cv::Ptr<cv::mcc::CChecker>, std::allocator<cv::Ptr<cv::mcc::CChecker>>>::_Vector_impl_data", ptr %3, i32 0, i32 2
  store ptr null, ptr %6, align 8, !tbaa !339
  ret void
}

; Function Attrs: mustprogress nounwind uwtable
define linkonce_odr hidden void @_ZNSaIN2cv3PtrINS_3mcc8CCheckerEEEEC2Ev(ptr noundef nonnull align 1 dereferenceable(1) %0) unnamed_addr #8 comdat align 2 {
  %2 = alloca ptr, align 8
  store ptr %0, ptr %2, align 8, !tbaa !385
  %3 = load ptr, ptr %2, align 8
  call void @_ZNSt15__new_allocatorIN2cv3PtrINS0_3mcc8CCheckerEEEEC2Ev(ptr noundef nonnull align 1 dereferenceable(1) %3) #3
  ret void
}

; Function Attrs: mustprogress nounwind uwtable
define linkonce_odr hidden void @_ZNSt12_Vector_baseIN2cv3PtrINS0_3mcc8CCheckerEEESaIS4_EE12_Vector_implC2Ev(ptr noundef nonnull align 8 dereferenceable(24) %0) unnamed_addr #8 comdat align 2 {
  %2 = alloca ptr, align 8
  store ptr %0, ptr %2, align 8, !tbaa !383
  %3 = load ptr, ptr %2, align 8
  call void @_ZNSaIN2cv3PtrINS_3mcc8CCheckerEEEEC2Ev(ptr noundef nonnull align 1 dereferenceable(1) %3) #3
  call void @_ZNSt12_Vector_baseIN2cv3PtrINS0_3mcc8CCheckerEEESaIS4_EE17_Vector_impl_dataC2Ev(ptr noundef nonnull align 8 dereferenceable(24) %3) #3
  ret void
}

; Function Attrs: mustprogress nounwind uwtable
define linkonce_odr hidden void @_ZNSt12_Vector_baseIN2cv3PtrINS0_3mcc8CCheckerEEESaIS4_EEC2Ev(ptr noundef nonnull align 8 dereferenceable(24) %0) unnamed_addr #8 comdat align 2 {
  %2 = alloca ptr, align 8
  store ptr %0, ptr %2, align 8, !tbaa !381
  %3 = load ptr, ptr %2, align 8
  %4 = getelementptr inbounds nuw %"struct.std::_Vector_base", ptr %3, i32 0, i32 0
  call void @_ZNSt12_Vector_baseIN2cv3PtrINS0_3mcc8CCheckerEEESaIS4_EE12_Vector_implC2Ev(ptr noundef nonnull align 8 dereferenceable(24) %4) #3
  ret void
}

; Function Attrs: mustprogress nounwind uwtable
define linkonce_odr hidden void @_ZNSt6vectorIN2cv3PtrINS0_3mcc8CCheckerEEESaIS4_EEC2Ev(ptr noundef nonnull align 8 dereferenceable(24) %0) unnamed_addr #8 comdat align 2 {
  %2 = alloca ptr, align 8
  store ptr %0, ptr %2, align 8, !tbaa !33
  %3 = load ptr, ptr %2, align 8
  call void @_ZNSt12_Vector_baseIN2cv3PtrINS0_3mcc8CCheckerEEESaIS4_EEC2Ev(ptr noundef nonnull align 8 dereferenceable(24) %3) #3
  ret void
}

; Function Attrs: inlinehint mustprogress uwtable
define linkonce_odr hidden void @_ZN2cv3mcc16CCheckerDetectorC2Ev(ptr noundef nonnull align 8 dereferenceable(8) %0) unnamed_addr #6 comdat align 2 {
  %2 = alloca ptr, align 8
  store ptr %0, ptr %2, align 8, !tbaa !31
  %3 = load ptr, ptr %2, align 8
  call void @_ZN2cv9AlgorithmC2Ev(ptr noundef nonnull align 8 dereferenceable(8) %3)
  store ptr getelementptr inbounds inrange(-16, 104) ({ [15 x ptr] }, ptr @_ZTVN2cv3mcc16CCheckerDetectorE, i32 0, i32 0, i32 2), ptr %3, align 8, !tbaa !12
  ret void
}

; Function Attrs: mustprogress uwtable
define hidden void @_ZN2cv3mcc20CCheckerDetectorImplC2Ev(ptr noundef nonnull align 8 dereferenceable(49) %0) unnamed_addr #4 align 2 personality ptr @__gxx_personality_v0 {
  %2 = alloca ptr, align 8
  %3 = alloca ptr, align 8
  %4 = alloca i32, align 4
  store ptr %0, ptr %2, align 8, !tbaa !10
  %5 = load ptr, ptr %2, align 8
  call void @_ZN2cv3mcc16CCheckerDetectorC2Ev(ptr noundef nonnull align 8 dereferenceable(8) %5)
  store ptr getelementptr inbounds inrange(-16, 168) ({ [23 x ptr] }, ptr @_ZTVN2cv3mcc20CCheckerDetectorImplE, i32 0, i32 0, i32 2), ptr %5, align 8, !tbaa !12
  %6 = getelementptr inbounds nuw %"class.cv::mcc::CCheckerDetectorImpl", ptr %5, i32 0, i32 1
  call void @_ZNSt6vectorIN2cv3PtrINS0_3mcc8CCheckerEEESaIS4_EEC2Ev(ptr noundef nonnull align 8 dereferenceable(24) %6) #3
  %7 = getelementptr inbounds nuw %"class.cv::mcc::CCheckerDetectorImpl", ptr %5, i32 0, i32 2
  invoke void @_ZN2cv3dnn14dnn4_v202412233NetC1Ev(ptr noundef nonnull align 8 dereferenceable(16) %7)
          to label %8 unwind label %10

8:                                                ; preds = %1
  %9 = getelementptr inbounds nuw %"class.cv::mcc::CCheckerDetectorImpl", ptr %5, i32 0, i32 3
  store i8 0, ptr %9, align 8, !tbaa !14
  ret void

10:                                               ; preds = %1
  %11 = landingpad { ptr, i32 }
          cleanup
  %12 = extractvalue { ptr, i32 } %11, 0
  store ptr %12, ptr %3, align 8
  %13 = extractvalue { ptr, i32 } %11, 1
  store i32 %13, ptr %4, align 4
  call void @_ZNSt6vectorIN2cv3PtrINS0_3mcc8CCheckerEEESaIS4_EED2Ev(ptr noundef nonnull align 8 dereferenceable(24) %6) #3
  call void @_ZN2cv9AlgorithmD2Ev(ptr noundef nonnull align 8 dereferenceable(8) %5) #3
  br label %14

14:                                               ; preds = %10
  %15 = load ptr, ptr %3, align 8
  %16 = load i32, ptr %4, align 4
  %17 = insertvalue { ptr, i32 } poison, ptr %15, 0
  %18 = insertvalue { ptr, i32 } %17, i32 %16, 1
  resume { ptr, i32 } %18
}